target datalayout = "e-m:e-p270:32:32-p271:32:32-p272:64:64-i64:64-i128:128-f80:128-n8:16:32:64-S128"
target triple = "x86_64-pc-linux-gnu"

%struct.mbedtls_mpi = type { ptr, i16, i16 }
%struct.mbedtls_rsa_context = type { i32, i64, %struct.mbedtls_mpi, %struct.mbedtls_mpi, %struct.mbedtls_mpi, %struct.mbedtls_mpi, %struct.mbedtls_mpi, %struct.mbedtls_mpi, %struct.mbedtls_mpi, %struct.mbedtls_mpi, %struct.mbedtls_mpi, %struct.mbedtls_mpi, %struct.mbedtls_mpi, %struct.mbedtls_mpi, %struct.mbedtls_mpi, i32, i32 }

; Function Attrs: inlinehint nounwind uwtable
define internal zeroext i8 @mbedtls_md_get_size_from_type(i32 noundef %0) #3 {
  %2 = alloca i32, align 4
  store i32 %0, ptr %2, align 4, !tbaa !12
  %3 = load i32, ptr %2, align 4, !tbaa !12
  %4 = call ptr @mbedtls_md_info_from_type(i32 noundef %3)
  %5 = call zeroext i8 @mbedtls_md_get_size(ptr noundef %4)
  ret i8 %5
}

; Function Attrs: nounwind uwtable
define hidden i32 @mbedtls_rsa_rsassa_pss_verify_ext(ptr noundef %0, i32 noundef %1, i32 noundef %2, ptr noundef %3, i32 noundef %4, i32 noundef %5, ptr noundef %6) #0 {
  %8 = alloca i32, align 4
  %9 = alloca ptr, align 8
  %10 = alloca i32, align 4
  %11 = alloca i32, align 4
  %12 = alloca ptr, align 8
  %13 = alloca i32, align 4
  %14 = alloca i32, align 4
  %15 = alloca ptr, align 8
  %16 = alloca i32, align 4
  %17 = alloca i64, align 8
  %18 = alloca ptr, align 8
  %19 = alloca ptr, align 8
  %20 = alloca [64 x i8], align 16
  %21 = alloca i32, align 4
  %22 = alloca i64, align 8
  %23 = alloca i64, align 8
  %24 = alloca [1024 x i8], align 16
  %25 = alloca i32, align 4
  %26 = alloca i64, align 8
  store ptr %0, ptr %9, align 8, !tbaa !3
  store i32 %1, ptr %10, align 4, !tbaa !12
  store i32 %2, ptr %11, align 4, !tbaa !12
  store ptr %3, ptr %12, align 8, !tbaa !8
  store i32 %4, ptr %13, align 4, !tbaa !12
  store i32 %5, ptr %14, align 4, !tbaa !12
  store ptr %6, ptr %15, align 8, !tbaa !8
  call void @llvm.lifetime.start.p0(i64 4, ptr %16) #9
  store i32 -110, ptr %16, align 4, !tbaa !12
  call void @llvm.lifetime.start.p0(i64 8, ptr %17) #9
  call void @llvm.lifetime.start.p0(i64 8, ptr %18) #9
  call void @llvm.lifetime.start.p0(i64 8, ptr %19) #9
  call void @llvm.lifetime.start.p0(i64 64, ptr %20) #9
  call void @llvm.lifetime.start.p0(i64 4, ptr %21) #9
  call void @llvm.lifetime.start.p0(i64 8, ptr %22) #9
  call void @llvm.lifetime.start.p0(i64 8, ptr %23) #9
  call void @llvm.lifetime.start.p0(i64 1024, ptr %24) #9
  call void @llvm.memset.p0.i64(ptr align 16 %24, i8 0, i64 1024, i1 false)
  %27 = load i32, ptr %10, align 4, !tbaa !12
  %28 = icmp ne i32 %27, 0
  br i1 %28, label %32, label %29

29:                                               ; preds = %7
  %30 = load i32, ptr %11, align 4, !tbaa !12
  %31 = icmp ne i32 %30, 0
  br i1 %31, label %32, label %36

32:                                               ; preds = %29, %7
  %33 = load ptr, ptr %12, align 8, !tbaa !8
  %34 = icmp eq ptr %33, null
  br i1 %34, label %35, label %36

35:                                               ; preds = %32
  store i32 -16512, ptr %8, align 4
  store i32 1, ptr %25, align 4
  br label %218

36:                                               ; preds = %32, %29
  %37 = load ptr, ptr %9, align 8, !tbaa !3
  %38 = getelementptr inbounds nuw %struct.mbedtls_rsa_context, ptr %37, i32 0, i32 1
  %39 = load i64, ptr %38, align 8, !tbaa !19
  store i64 %39, ptr %17, align 8, !tbaa !10
  %40 = load i64, ptr %17, align 8, !tbaa !10
  %41 = icmp ult i64 %40, 16
  br i1 %41, label %45, label %42

42:                                               ; preds = %36
  %43 = load i64, ptr %17, align 8, !tbaa !10
  %44 = icmp ugt i64 %43, 1024
  br i1 %44, label %45, label %46

45:                                               ; preds = %42, %36
  store i32 -16512, ptr %8, align 4
  store i32 1, ptr %25, align 4
  br label %218

46:                                               ; preds = %42
  %47 = load ptr, ptr %9, align 8, !tbaa !3
  %48 = load ptr, ptr %15, align 8, !tbaa !8
  %49 = getelementptr inbounds [1024 x i8], ptr %24, i64 0, i64 0
  %50 = call i32 @mbedtls_rsa_public(ptr noundef %47, ptr noundef %48, ptr noundef %49)
  store i32 %50, ptr %16, align 4, !tbaa !12
  %51 = load i32, ptr %16, align 4, !tbaa !12
  %52 = icmp ne i32 %51, 0
  br i1 %52, label %53, label %55

53:                                               ; preds = %46
  %54 = load i32, ptr %16, align 4, !tbaa !12
  store i32 %54, ptr %8, align 4
  store i32 1, ptr %25, align 4
  br label %218

55:                                               ; preds = %46
  %56 = getelementptr inbounds [1024 x i8], ptr %24, i64 0, i64 0
  store ptr %56, ptr %18, align 8, !tbaa !8
  %57 = load i64, ptr %17, align 8, !tbaa !10
  %58 = sub i64 %57, 1
  %59 = getelementptr inbounds nuw [1024 x i8], ptr %24, i64 0, i64 %58
  %60 = load i8, ptr %59, align 1, !tbaa !33
  %61 = zext i8 %60 to i32
  %62 = icmp ne i32 %61, 188
  br i1 %62, label %63, label %64

63:                                               ; preds = %55
  store i32 -16640, ptr %8, align 4
  store i32 1, ptr %25, align 4
  br label %218

64:                                               ; preds = %55
  %65 = load i32, ptr %10, align 4, !tbaa !12
  %66 = icmp ne i32 %65, 0
  br i1 %66, label %67, label %84

67:                                               ; preds = %64
  call void @llvm.lifetime.start.p0(i64 8, ptr %26) #9
  %68 = load i32, ptr %10, align 4, !tbaa !12
  %69 = call zeroext i8 @mbedtls_md_get_size_from_type(i32 noundef %68)
  %70 = zext i8 %69 to i64
  store i64 %70, ptr %26, align 8, !tbaa !10
  %71 = load i64, ptr %26, align 8, !tbaa !10
  %72 = icmp eq i64 %71, 0
  br i1 %72, label %73, label %74

73:                                               ; preds = %67
  store i32 -16512, ptr %8, align 4
  store i32 1, ptr %25, align 4
  br label %81

74:                                               ; preds = %67
  %75 = load i32, ptr %11, align 4, !tbaa !12
  %76 = zext i32 %75 to i64
  %77 = load i64, ptr %26, align 8, !tbaa !10
  %78 = icmp ne i64 %76, %77
  br i1 %78, label %79, label %80

79:                                               ; preds = %74
  store i32 -16512, ptr %8, align 4
  store i32 1, ptr %25, align 4
  br label %81

80:                                               ; preds = %74
  store i32 0, ptr %25, align 4
  br label %81

81:                                               ; preds = %80, %79, %73
  call void @llvm.lifetime.end.p0(i64 8, ptr %26) #9
  %82 = load i32, ptr %25, align 4
  switch i32 %82, label %218 [
    i32 0, label %83
  ]

83:                                               ; preds = %81
  br label %84

84:                                               ; preds = %83, %64
  %85 = load i32, ptr %13, align 4, !tbaa !12
  %86 = call zeroext i8 @mbedtls_md_get_size_from_type(i32 noundef %85)
  %87 = zext i8 %86 to i32
  store i32 %87, ptr %21, align 4, !tbaa !12
  %88 = load i32, ptr %21, align 4, !tbaa !12
  %89 = icmp eq i32 %88, 0
  br i1 %89, label %90, label %91

90:                                               ; preds = %84
  store i32 -16512, ptr %8, align 4
  store i32 1, ptr %25, align 4
  br label %218

91:                                               ; preds = %84
  %92 = load ptr, ptr %9, align 8, !tbaa !3
  %93 = getelementptr inbounds nuw %struct.mbedtls_rsa_context, ptr %92, i32 0, i32 2
  %94 = call i64 @mbedtls_mpi_bitlen(ptr noundef %93)
  %95 = sub i64 %94, 1
  store i64 %95, ptr %23, align 8, !tbaa !10
  %96 = getelementptr inbounds [1024 x i8], ptr %24, i64 0, i64 0
  %97 = load i8, ptr %96, align 16, !tbaa !33
  %98 = zext i8 %97 to i32
  %99 = load i64, ptr %17, align 8, !tbaa !10
  %100 = mul i64 %99, 8
  %101 = sub i64 8, %100
  %102 = load i64, ptr %23, align 8, !tbaa !10
  %103 = add i64 %101, %102
  %104 = trunc i64 %103 to i32
  %105 = ashr i32 %98, %104
  %106 = icmp ne i32 %105, 0
  br i1 %106, label %107, label %108

107:                                              ; preds = %91
  store i32 -16512, ptr %8, align 4
  store i32 1, ptr %25, align 4
  br label %218

108:                                              ; preds = %91
  %109 = load i64, ptr %23, align 8, !tbaa !10
  %110 = urem i64 %109, 8
  %111 = icmp eq i64 %110, 0
  br i1 %111, label %112, label %117

112:                                              ; preds = %108
  %113 = load ptr, ptr %18, align 8, !tbaa !8
  %114 = getelementptr inbounds nuw i8, ptr %113, i32 1
  store ptr %114, ptr %18, align 8, !tbaa !8
  %115 = load i64, ptr %17, align 8, !tbaa !10
  %116 = sub i64 %115, 1
  store i64 %116, ptr %17, align 8, !tbaa !10
  br label %117

117:                                              ; preds = %112, %108
  %118 = load i64, ptr %17, align 8, !tbaa !10
  %119 = load i32, ptr %21, align 4, !tbaa !12
  %120 = add i32 %119, 2
  %121 = zext i32 %120 to i64
  %122 = icmp ult i64 %118, %121
  br i1 %122, label %123, label %124

123:                                              ; preds = %117
  store i32 -16512, ptr %8, align 4
  store i32 1, ptr %25, align 4
  br label %218

124:                                              ; preds = %117
  %125 = load ptr, ptr %18, align 8, !tbaa !8
  %126 = load i64, ptr %17, align 8, !tbaa !10
  %127 = getelementptr inbounds nuw i8, ptr %125, i64 %126
  %128 = load i32, ptr %21, align 4, !tbaa !12
  %129 = zext i32 %128 to i64
  %130 = sub i64 0, %129
  %131 = getelementptr inbounds i8, ptr %127, i64 %130
  %132 = getelementptr inbounds i8, ptr %131, i64 -1
  store ptr %132, ptr %19, align 8, !tbaa !8
  %133 = load ptr, ptr %18, align 8, !tbaa !8
  %134 = load i64, ptr %17, align 8, !tbaa !10
  %135 = load i32, ptr %21, align 4, !tbaa !12
  %136 = zext i32 %135 to i64
  %137 = sub i64 %134, %136
  %138 = sub i64 %137, 1
  %139 = load ptr, ptr %19, align 8, !tbaa !8
  %140 = load i32, ptr %21, align 4, !tbaa !12
  %141 = zext i32 %140 to i64
  %142 = load i32, ptr %13, align 4, !tbaa !12
  %143 = call i32 @mgf_mask(ptr noundef %133, i64 noundef %138, ptr noundef %139, i64 noundef %141, i32 noundef %142)
  store i32 %143, ptr %16, align 4, !tbaa !12
  %144 = load i32, ptr %16, align 4, !tbaa !12
  %145 = icmp ne i32 %144, 0
  br i1 %145, label %146, label %148

146:                                              ; preds = %124
  %147 = load i32, ptr %16, align 4, !tbaa !12
  store i32 %147, ptr %8, align 4
  store i32 1, ptr %25, align 4
  br label %218

148:                                              ; preds = %124
  %149 = load i64, ptr %17, align 8, !tbaa !10
  %150 = mul i64 %149, 8
  %151 = load i64, ptr %23, align 8, !tbaa !10
  %152 = sub i64 %150, %151
  %153 = trunc i64 %152 to i32
  %154 = ashr i32 255, %153
  %155 = getelementptr inbounds [1024 x i8], ptr %24, i64 0, i64 0
  %156 = load i8, ptr %155, align 16, !tbaa !33
  %157 = zext i8 %156 to i32
  %158 = and i32 %157, %154
  %159 = trunc i32 %158 to i8
  store i8 %159, ptr %155, align 16, !tbaa !33
  br label %160

160:                                              ; preds = %172, %148
  %161 = load ptr, ptr %18, align 8, !tbaa !8
  %162 = load ptr, ptr %19, align 8, !tbaa !8
  %163 = getelementptr inbounds i8, ptr %162, i64 -1
  %164 = icmp ult ptr %161, %163
  br i1 %164, label %165, label %170

165:                                              ; preds = %160
  %166 = load ptr, ptr %18, align 8, !tbaa !8
  %167 = load i8, ptr %166, align 1, !tbaa !33
  %168 = zext i8 %167 to i32
  %169 = icmp eq i32 %168, 0
  br label %170

170:                                              ; preds = %165, %160
  %171 = phi i1 [ false, %160 ], [ %169, %165 ]
  br i1 %171, label %172, label %175

172:                                              ; preds = %170
  %173 = load ptr, ptr %18, align 8, !tbaa !8
  %174 = getelementptr inbounds nuw i8, ptr %173, i32 1
  store ptr %174, ptr %18, align 8, !tbaa !8
  br label %160, !llvm.loop !45

175:                                              ; preds = %170
  %176 = load ptr, ptr %18, align 8, !tbaa !8
  %177 = getelementptr inbounds nuw i8, ptr %176, i32 1
  store ptr %177, ptr %18, align 8, !tbaa !8
  %178 = load i8, ptr %176, align 1, !tbaa !33
  %179 = zext i8 %178 to i32
  %180 = icmp ne i32 %179, 1
  br i1 %180, label %181, label %182

181:                                              ; preds = %175
  store i32 -16640, ptr %8, align 4
  store i32 1, ptr %25, align 4
  br label %218

182:                                              ; preds = %175
  %183 = load ptr, ptr %19, align 8, !tbaa !8
  %184 = load ptr, ptr %18, align 8, !tbaa !8
  %185 = ptrtoint ptr %183 to i64
  %186 = ptrtoint ptr %184 to i64
  %187 = sub i64 %185, %186
  store i64 %187, ptr %22, align 8, !tbaa !10
  %188 = load i32, ptr %14, align 4, !tbaa !12
  %189 = icmp ne i32 %188, -1
  br i1 %189, label %190, label %196

190:                                              ; preds = %182
  %191 = load i64, ptr %22, align 8, !tbaa !10
  %192 = load i32, ptr %14, align 4, !tbaa !12
  %193 = sext i32 %192 to i64
  %194 = icmp ne i64 %191, %193
  br i1 %194, label %195, label %196

195:                                              ; preds = %190
  store i32 -16640, ptr %8, align 4
  store i32 1, ptr %25, align 4
  br label %218

196:                                              ; preds = %190, %182
  %197 = load ptr, ptr %12, align 8, !tbaa !8
  %198 = load i32, ptr %11, align 4, !tbaa !12
  %199 = zext i32 %198 to i64
  %200 = load ptr, ptr %18, align 8, !tbaa !8
  %201 = load i64, ptr %22, align 8, !tbaa !10
  %202 = getelementptr inbounds [64 x i8], ptr %20, i64 0, i64 0
  %203 = load i32, ptr %13, align 4, !tbaa !12
  %204 = call i32 @hash_mprime(ptr noundef %197, i64 noundef %199, ptr noundef %200, i64 noundef %201, ptr noundef %202, i32 noundef %203)
  store i32 %204, ptr %16, align 4, !tbaa !12
  %205 = load i32, ptr %16, align 4, !tbaa !12
  %206 = icmp ne i32 %205, 0
  br i1 %206, label %207, label %209

207:                                              ; preds = %196
  %208 = load i32, ptr %16, align 4, !tbaa !12
  store i32 %208, ptr %8, align 4
  store i32 1, ptr %25, align 4
  br label %218

209:                                              ; preds = %196
  %210 = load ptr, ptr %19, align 8, !tbaa !8
  %211 = getelementptr inbounds [64 x i8], ptr %20, i64 0, i64 0
  %212 = load i32, ptr %21, align 4, !tbaa !12
  %213 = zext i32 %212 to i64
  %214 = call i32 @memcmp(ptr noundef %210, ptr noundef %211, i64 noundef %213) #11
  %215 = icmp ne i32 %214, 0
  br i1 %215, label %216, label %217

216:                                              ; preds = %209
  store i32 -17280, ptr %8, align 4
  store i32 1, ptr %25, align 4
  br label %218

217:                                              ; preds = %209
  store i32 0, ptr %8, align 4
  store i32 1, ptr %25, align 4
  br label %218

218:                                              ; preds = %217, %216, %207, %195, %181, %146, %123, %107, %90, %81, %63, %53, %45, %35
  call void @llvm.lifetime.end.p0(i64 1024, ptr %24) #9
  call void @llvm.lifetime.end.p0(i64 8, ptr %23) #9
  call void @llvm.lifetime.end.p0(i64 8, ptr %22) #9
  call void @llvm.lifetime.end.p0(i64 4, ptr %21) #9
  call void @llvm.lifetime.end.p0(i64 64, ptr %20) #9
  call void @llvm.lifetime.end.p0(i64 8, ptr %19) #9
  call void @llvm.lifetime.end.p0(i64 8, ptr %18) #9
  call void @llvm.lifetime.end.p0(i64 8, ptr %17) #9
  call void @llvm.lifetime.end.p0(i64 4, ptr %16) #9
  %219 = load i32, ptr %8, align 4
  ret i32 %219
}