; Function Attrs: nounwind uwtable
define hidden i32 @mbedtls_rsa_rsassa_pss_verify_ext(ptr noundef %0, i32 noundef %1, i32 noundef %2, ptr noundef %3, i32 noundef %4, i32 noundef %5, ptr noundef %6) local_unnamed_addr #0 {
  %8 = alloca [64 x i8], align 16
  %9 = alloca [1024 x i8], align 16
  call void @llvm.lifetime.start.p0(i64 64, ptr nonnull %8) #14
  call void @llvm.lifetime.start.p0(i64 1024, ptr nonnull %9) #14
  call void @llvm.memset.p0.i64(ptr noundef nonnull align 16 dereferenceable(1024) %9, i8 0, i64 1024, i1 false)
  %.not = icmp eq i32 %1, 0
  %10 = or i32 %2, %1
  %or.cond = icmp ne i32 %10, 0
  %11 = icmp eq ptr %3, null
  %or.cond3 = and i1 %or.cond, %11
  br i1 %or.cond3, label %.critedge87, label %12

12:                                               ; preds = %7
  %13 = getelementptr inbounds nuw i8, ptr %0, i64 8
  %14 = load i64, ptr %13, align 8, !tbaa !12
  %15 = add i64 %14, -1025
  %or.cond5 = icmp ult i64 %15, -1009
  br i1 %or.cond5, label %.critedge87, label %16

16:                                               ; preds = %12
  %17 = call i32 @mbedtls_rsa_public(ptr noundef nonnull %0, ptr noundef %6, ptr noundef nonnull %9)
  %.not76 = icmp eq i32 %17, 0
  br i1 %.not76, label %18, label %.critedge87

18:                                               ; preds = %16
  %19 = add nsw i64 %14, -1
  %20 = getelementptr inbounds nuw [1024 x i8], ptr %9, i64 0, i64 %19
  %21 = load i8, ptr %20, align 1, !tbaa !23
  %.not77 = icmp eq i8 %21, -68
  br i1 %.not77, label %22, label %.critedge87

22:                                               ; preds = %18
  br i1 %.not, label %28, label %23

23:                                               ; preds = %22
  %24 = call ptr @mbedtls_md_info_from_type(i32 noundef %1) #14
  %25 = call zeroext i8 @mbedtls_md_get_size(ptr noundef %24) #14
  %26 = icmp ne i8 %25, 0
  %27 = zext i8 %25 to i32
  %.not78 = icmp eq i32 %2, %27
  %or.cond91 = and i1 %26, %.not78
  br i1 %or.cond91, label %28, label %.critedge87

28:                                               ; preds = %23, %22
  %29 = call ptr @mbedtls_md_info_from_type(i32 noundef %4) #14
  %30 = call zeroext i8 @mbedtls_md_get_size(ptr noundef %29) #14
  %31 = zext i8 %30 to i64
  %32 = icmp eq i8 %30, 0
  br i1 %32, label %.critedge87, label %33

33:                                               ; preds = %28
  %34 = getelementptr inbounds nuw i8, ptr %0, i64 16
  %35 = call i64 @mbedtls_mpi_bitlen(ptr noundef nonnull %34) #14
  %36 = add i64 %35, -1
  %37 = load i8, ptr %9, align 16, !tbaa !23
  %38 = zext i8 %37 to i32
  %39 = shl nuw nsw i64 %14, 3
  %40 = sub i64 %35, %39
  %41 = trunc i64 %40 to i32
  %42 = add i32 %41, 7
  %43 = lshr i32 %38, %42
  %.not79 = icmp eq i32 %43, 0
  br i1 %.not79, label %44, label %.critedge87

44:                                               ; preds = %33
  %45 = and i64 %36, 7
  %46 = icmp eq i64 %45, 0
  %spec.select.idx = zext i1 %46 to i64
  %spec.select = getelementptr inbounds nuw i8, ptr %9, i64 %spec.select.idx
  %spec.select88 = select i1 %46, i64 %19, i64 %14
  %47 = add nuw nsw i64 %31, 2
  %48 = icmp samesign ult i64 %spec.select88, %47
  br i1 %48, label %.critedge87, label %49

49:                                               ; preds = %44
  %50 = getelementptr inbounds nuw i8, ptr %spec.select, i64 %spec.select88
  %51 = sub nsw i64 0, %31
  %52 = getelementptr inbounds i8, ptr %50, i64 %51
  %53 = getelementptr inbounds i8, ptr %52, i64 -1
  %54 = xor i64 %31, -1
  %55 = add nsw i64 %spec.select88, %54
  %56 = call fastcc i32 @mgf_mask(ptr noundef nonnull %spec.select, i64 noundef %55, ptr noundef nonnull %53, i64 noundef %31, i32 noundef %4)
  %.not80 = icmp eq i32 %56, 0
  br i1 %.not80, label %57, label %.critedge87

57:                                               ; preds = %49
  %58 = shl nuw nsw i64 %spec.select88, 3
  %59 = sub i64 %58, %36
  %60 = trunc i64 %59 to i32
  %61 = lshr i32 255, %60
  %62 = load i8, ptr %9, align 16, !tbaa !23
  %63 = trunc nuw i32 %61 to i8
  %64 = and i8 %62, %63
  store i8 %64, ptr %9, align 16, !tbaa !23
  %65 = getelementptr inbounds i8, ptr %52, i64 -2
  %66 = icmp ult ptr %spec.select, %65
  br i1 %66, label %.lr.ph, label %.critedgethread-pre-split

.lr.ph:                                           ; preds = %57, %69
  %.16794 = phi ptr [ %70, %69 ], [ %spec.select, %57 ]
  %67 = load i8, ptr %.16794, align 1, !tbaa !23
  %68 = icmp eq i8 %67, 0
  br i1 %68, label %69, label %.critedge

69:                                               ; preds = %.lr.ph
  %70 = getelementptr inbounds nuw i8, ptr %.16794, i64 1
  %exitcond.not = icmp eq ptr %70, %65
  br i1 %exitcond.not, label %.critedgethread-pre-split, label %.lr.ph, !llvm.loop !34

.critedgethread-pre-split:                        ; preds = %69, %57
  %.167.lcssa = phi ptr [ %spec.select, %57 ], [ %65, %69 ]
  %.pr = load i8, ptr %.167.lcssa, align 1, !tbaa !23
  br label %.critedge

.critedge:                                        ; preds = %.lr.ph, %.critedgethread-pre-split
  %.16793 = phi ptr [ %.167.lcssa, %.critedgethread-pre-split ], [ %.16794, %.lr.ph ]
  %71 = phi i8 [ %.pr, %.critedgethread-pre-split ], [ %67, %.lr.ph ]
  %72 = getelementptr inbounds nuw i8, ptr %.16793, i64 1
  %.not81 = icmp eq i8 %71, 1
  br i1 %.not81, label %73, label %.critedge87

73:                                               ; preds = %.critedge
  %74 = ptrtoint ptr %53 to i64
  %75 = ptrtoint ptr %72 to i64
  %76 = sub i64 %74, %75
  %.not82 = icmp eq i32 %5, -1
  %77 = sext i32 %5 to i64
  %.not83 = icmp eq i64 %76, %77
  %or.cond89 = select i1 %.not82, i1 true, i1 %.not83
  br i1 %or.cond89, label %78, label %.critedge87

78:                                               ; preds = %73
  %79 = zext i32 %2 to i64
  %80 = call fastcc i32 @hash_mprime(ptr noundef %3, i64 noundef %79, ptr noundef nonnull %72, i64 noundef %76, ptr noundef nonnull %8, i32 noundef %4)
  %.not84 = icmp eq i32 %80, 0
  br i1 %.not84, label %81, label %.critedge87

81:                                               ; preds = %78
  %bcmp = call i32 @bcmp(ptr nonnull %53, ptr nonnull %8, i64 %31)
  %.not85 = icmp eq i32 %bcmp, 0
  %.90 = select i1 %.not85, i32 0, i32 -17280
  br label %.critedge87

.critedge87:                                      ; preds = %23, %81, %78, %73, %.critedge, %49, %44, %33, %28, %18, %16, %12, %7
  %.0 = phi i32 [ -16512, %7 ], [ -16512, %12 ], [ %17, %16 ], [ -16640, %18 ], [ -16512, %28 ], [ -16512, %33 ], [ -16512, %44 ], [ %56, %49 ], [ -16640, %.critedge ], [ -16640, %73 ], [ %80, %78 ], [ %.90, %81 ], [ -16512, %23 ]
  call void @llvm.lifetime.end.p0(i64 1024, ptr nonnull %9) #14
  call void @llvm.lifetime.end.p0(i64 64, ptr nonnull %8) #14
  ret i32 %.0
}